; Function Attrs: nounwind sspstrong uwtable
define internal void @fifo_update_on_miss(ptr noundef readonly captures(none) %0, i32 noundef %1, i32 noundef %2) #0 {
  %4 = load ptr, ptr %0, align 8
  %5 = sext i32 %1 to i64
  %6 = getelementptr inbounds %struct.CacheSet, ptr %4, i64 %5, i32 3
  %7 = load ptr, ptr %6, align 8
  %8 = sext i32 %2 to i64
  %9 = inttoptr i64 %8 to ptr
  tail call void @g_queue_push_head(ptr noundef %7, ptr noundef %9) #12
  ret void
}